; ModuleID = '27/1780.c'
source_filename = "27/1780.c"
target datalayout = "e-m:e-p270:32:32-p271:32:32-p272:64:64-i64:64-f80:128-n8:16:32:64-S128"
target triple = "x86_64-pc-linux-gnu"

@.str = private unnamed_addr constant [3 x i8] c"%d\00", align 1
@.str.1 = private unnamed_addr constant [12 x i8] c"%lf %lf %lf\00", align 1
@.str.2 = private unnamed_addr constant [17 x i8] c"x1=%.5f;x2=%.5f\0A\00", align 1
@.str.3 = private unnamed_addr constant [12 x i8] c"x1=x2=%.5f\0A\00", align 1
@.str.4 = private unnamed_addr constant [29 x i8] c"x1=%.5f+%.5fi;x2=%.5f-%.5fi\0A\00", align 1

; Function Attrs: noinline nounwind uwtable
define dso_local i32 @main() #0 {
  %1 = alloca i32, align 4
  %2 = alloca double*, align 8
  %3 = alloca double*, align 8
  %4 = alloca double*, align 8
  %5 = alloca i32, align 4
  %6 = alloca i32, align 4
  store i32 0, i32* %1, align 4
  %7 = call i32 (i8*, ...) @__isoc99_scanf(i8* getelementptr inbounds ([3 x i8], [3 x i8]* @.str, i64 0, i64 0), i32* %5)
  %8 = load i32, i32* %5, align 4
  %9 = sext i32 %8 to i64
  %10 = mul i64 %9, 8
  %11 = call noalias i8* @malloc(i64 %10) #3
  %12 = bitcast i8* %11 to double*
  store double* %12, double** %2, align 8
  %13 = load i32, i32* %5, align 4
  %14 = sext i32 %13 to i64
  %15 = mul i64 %14, 8
  %16 = call noalias i8* @malloc(i64 %15) #3
  %17 = bitcast i8* %16 to double*
  store double* %17, double** %3, align 8
  %18 = load i32, i32* %5, align 4
  %19 = sext i32 %18 to i64
  %20 = mul i64 %19, 8
  %21 = call noalias i8* @malloc(i64 %20) #3
  %22 = bitcast i8* %21 to double*
  store double* %22, double** %4, align 8
  store i32 0, i32* %6, align 4
  br label %23

23:                                               ; preds = %42, %0
  %24 = load i32, i32* %6, align 4
  %25 = load i32, i32* %5, align 4
  %26 = sub nsw i32 %25, 1
  %27 = icmp sle i32 %24, %26
  br i1 %27, label %28, label %45

28:                                               ; preds = %23
  %29 = load double*, double** %2, align 8
  %30 = load i32, i32* %6, align 4
  %31 = sext i32 %30 to i64
  %32 = getelementptr inbounds double, double* %29, i64 %31
  %33 = load double*, double** %3, align 8
  %34 = load i32, i32* %6, align 4
  %35 = sext i32 %34 to i64
  %36 = getelementptr inbounds double, double* %33, i64 %35
  %37 = load double*, double** %4, align 8
  %38 = load i32, i32* %6, align 4
  %39 = sext i32 %38 to i64
  %40 = getelementptr inbounds double, double* %37, i64 %39
  %41 = call i32 (i8*, ...) @__isoc99_scanf(i8* getelementptr inbounds ([12 x i8], [12 x i8]* @.str.1, i64 0, i64 0), double* %32, double* %36, double* %40)
  br label %42

42:                                               ; preds = %28
  %43 = load i32, i32* %6, align 4
  %44 = add nsw i32 %43, 1
  store i32 %44, i32* %6, align 4
  br label %23

45:                                               ; preds = %23
  store i32 0, i32* %6, align 4
  br label %46

46:                                               ; preds = %67, %45
  %47 = load i32, i32* %6, align 4
  %48 = load i32, i32* %5, align 4
  %49 = sub nsw i32 %48, 1
  %50 = icmp sle i32 %47, %49
  br i1 %50, label %51, label %70

51:                                               ; preds = %46
  %52 = load double*, double** %2, align 8
  %53 = load i32, i32* %6, align 4
  %54 = sext i32 %53 to i64
  %55 = getelementptr inbounds double, double* %52, i64 %54
  %56 = load double, double* %55, align 8
  %57 = load double*, double** %3, align 8
  %58 = load i32, i32* %6, align 4
  %59 = sext i32 %58 to i64
  %60 = getelementptr inbounds double, double* %57, i64 %59
  %61 = load double, double* %60, align 8
  %62 = load double*, double** %4, align 8
  %63 = load i32, i32* %6, align 4
  %64 = sext i32 %63 to i64
  %65 = getelementptr inbounds double, double* %62, i64 %64
  %66 = load double, double* %65, align 8
  call void @gen(double %56, double %61, double %66)
  br label %67

67:                                               ; preds = %51
  %68 = load i32, i32* %6, align 4
  %69 = add nsw i32 %68, 1
  store i32 %69, i32* %6, align 4
  br label %46

70:                                               ; preds = %46
  %71 = load double*, double** %2, align 8
  %72 = bitcast double* %71 to i8*
  call void @free(i8* %72) #3
  %73 = load double*, double** %3, align 8
  %74 = bitcast double* %73 to i8*
  call void @free(i8* %74) #3
  %75 = load double*, double** %4, align 8
  %76 = bitcast double* %75 to i8*
  call void @free(i8* %76) #3
  ret i32 0
}

declare dso_local i32 @__isoc99_scanf(i8*, ...) #1

; Function Attrs: nounwind
declare dso_local noalias i8* @malloc(i64) #2

; Function Attrs: noinline nounwind uwtable
define dso_local void @gen(double %0, double %1, double %2) #0 {
  %4 = alloca double, align 8
  %5 = alloca double, align 8
  %6 = alloca double, align 8
  %7 = alloca double, align 8
  %8 = alloca double, align 8
  %9 = alloca double, align 8
  %10 = alloca double, align 8
  store double %0, double* %4, align 8
  store double %1, double* %5, align 8
  store double %2, double* %6, align 8
  %11 = load double, double* %5, align 8
  %12 = load double, double* %5, align 8
  %13 = fmul double %11, %12
  %14 = load double, double* %4, align 8
  %15 = fmul double 4.000000e+00, %14
  %16 = load double, double* %6, align 8
  %17 = fmul double %15, %16
  %18 = fsub double %13, %17
  store double %18, double* %7, align 8
  %19 = load double, double* %7, align 8
  %20 = fcmp ogt double %19, 0.000000e+00
  br i1 %20, label %21, label %41

21:                                               ; preds = %3
  %22 = load double, double* %5, align 8
  %23 = fsub double 0.000000e+00, %22
  %24 = load double, double* %7, align 8
  %25 = call double @sqrt(double %24) #3
  %26 = fadd double %23, %25
  %27 = load double, double* %4, align 8
  %28 = fmul double 2.000000e+00, %27
  %29 = fdiv double %26, %28
  store double %29, double* %8, align 8
  %30 = load double, double* %5, align 8
  %31 = fsub double 0.000000e+00, %30
  %32 = load double, double* %7, align 8
  %33 = call double @sqrt(double %32) #3
  %34 = fsub double %31, %33
  %35 = load double, double* %4, align 8
  %36 = fmul double 2.000000e+00, %35
  %37 = fdiv double %34, %36
  store double %37, double* %9, align 8
  %38 = load double, double* %8, align 8
  %39 = load double, double* %9, align 8
  %40 = call i32 (i8*, ...) @printf(i8* getelementptr inbounds ([17 x i8], [17 x i8]* @.str.2, i64 0, i64 0), double %38, double %39)
  br label %69

41:                                               ; preds = %3
  %42 = load double, double* %7, align 8
  %43 = fcmp oeq double %42, 0.000000e+00
  br i1 %43, label %44, label %51

44:                                               ; preds = %41
  %45 = load double, double* %5, align 8
  %46 = fsub double 0.000000e+00, %45
  %47 = load double, double* %4, align 8
  %48 = fmul double 2.000000e+00, %47
  %49 = fdiv double %46, %48
  %50 = call i32 (i8*, ...) @printf(i8* getelementptr inbounds ([12 x i8], [12 x i8]* @.str.3, i64 0, i64 0), double %49)
  br label %68

51:                                               ; preds = %41
  %52 = load double, double* %5, align 8
  %53 = fsub double 0.000000e+00, %52
  %54 = load double, double* %4, align 8
  %55 = fmul double 2.000000e+00, %54
  %56 = fdiv double %53, %55
  store double %56, double* %8, align 8
  %57 = load double, double* %7, align 8
  %58 = fsub double 0.000000e+00, %57
  %59 = call double @sqrt(double %58) #3
  %60 = load double, double* %4, align 8
  %61 = fmul double 2.000000e+00, %60
  %62 = fdiv double %59, %61
  store double %62, double* %10, align 8
  %63 = load double, double* %8, align 8
  %64 = load double, double* %10, align 8
  %65 = load double, double* %8, align 8
  %66 = load double, double* %10, align 8
  %67 = call i32 (i8*, ...) @printf(i8* getelementptr inbounds ([29 x i8], [29 x i8]* @.str.4, i64 0, i64 0), double %63, double %64, double %65, double %66)
  br label %68

68:                                               ; preds = %51, %44
  br label %69

69:                                               ; preds = %68, %21
  ret void
}

; Function Attrs: nounwind
declare dso_local void @free(i8*) #2

; Function Attrs: nounwind
declare dso_local double @sqrt(double) #2

declare dso_local i32 @printf(i8*, ...) #1


!llvm.module.flags = !{!0}
!llvm.ident = !{!1}

!0 = !{i32 1, !"wchar_size", i32 4}
!1 = !{!"clang version 10.0.0-4ubuntu1 "}
