; ModuleID = 'source-C-CXX/26/1780.c'
source_filename = "source-C-CXX/26/1780.c"
target datalayout = "e-m:e-p270:32:32-p271:32:32-p272:64:64-i64:64-f80:128-n8:16:32:64-S128"
target triple = "x86_64-pc-linux-gnu"

@.str = private unnamed_addr constant [3 x i8] c"%d\00", align 1
@.str.1 = private unnamed_addr constant [12 x i8] c"%lf %lf %lf\00", align 1
@.str.2 = private unnamed_addr constant [17 x i8] c"x1=%.5f;x2=%.5f\0A\00", align 1
@.str.3 = private unnamed_addr constant [12 x i8] c"x1=x2=%.5f\0A\00", align 1
@.str.4 = private unnamed_addr constant [29 x i8] c"x1=%.5f+%.5fi;x2=%.5f-%.5fi\0A\00", align 1

; Function Attrs: nounwind sspstrong uwtable
define dso_local i32 @main() local_unnamed_addr #0 {
  %1 = alloca i32, align 4
  %2 = bitcast i32* %1 to i8*
  call void @llvm.lifetime.start.p0i8(i64 4, i8* nonnull %2) #7
  %3 = call i32 (i8*, ...) @__isoc99_scanf(i8* getelementptr inbounds ([3 x i8], [3 x i8]* @.str, i64 0, i64 0), i32* nonnull %1)
  %4 = load i32, i32* %1, align 4, !tbaa !5
  %5 = sext i32 %4 to i64
  %6 = shl nsw i64 %5, 3
  %7 = call noalias align 16 i8* @malloc(i64 %6) #7
  %8 = bitcast i8* %7 to double*
  %9 = call noalias align 16 i8* @malloc(i64 %6) #7
  %10 = bitcast i8* %9 to double*
  %11 = call noalias align 16 i8* @malloc(i64 %6) #7
  %12 = bitcast i8* %11 to double*
  %13 = icmp sgt i32 %4, 0
  br i1 %13, label %16, label %66

14:                                               ; preds = %16
  %15 = icmp sgt i32 %23, 0
  br i1 %15, label %26, label %66

16:                                               ; preds = %0, %16
  %17 = phi i64 [ %22, %16 ], [ 0, %0 ]
  %18 = getelementptr inbounds double, double* %8, i64 %17
  %19 = getelementptr inbounds double, double* %10, i64 %17
  %20 = getelementptr inbounds double, double* %12, i64 %17
  %21 = call i32 (i8*, ...) @__isoc99_scanf(i8* getelementptr inbounds ([12 x i8], [12 x i8]* @.str.1, i64 0, i64 0), double* %18, double* %19, double* %20)
  %22 = add nuw nsw i64 %17, 1
  %23 = load i32, i32* %1, align 4, !tbaa !5
  %24 = sext i32 %23 to i64
  %25 = icmp slt i64 %22, %24
  br i1 %25, label %16, label %14, !llvm.loop !9

26:                                               ; preds = %14, %61
  %27 = phi i64 [ %62, %61 ], [ 0, %14 ]
  %28 = getelementptr inbounds double, double* %8, i64 %27
  %29 = load double, double* %28, align 8, !tbaa !11
  %30 = getelementptr inbounds double, double* %10, i64 %27
  %31 = load double, double* %30, align 8, !tbaa !11
  %32 = getelementptr inbounds double, double* %12, i64 %27
  %33 = load double, double* %32, align 8, !tbaa !11
  %34 = fmul double %31, %31
  %35 = fmul double %29, 4.000000e+00
  %36 = fmul double %35, %33
  %37 = fsub double %34, %36
  %38 = fcmp ogt double %37, 0.000000e+00
  br i1 %38, label %39, label %49

39:                                               ; preds = %26
  %40 = fsub double 0.000000e+00, %31
  %41 = call double @sqrt(double %37) #7
  %42 = fadd double %40, %41
  %43 = fmul double %29, 2.000000e+00
  %44 = fdiv double %42, %43
  %45 = call double @sqrt(double %37) #7
  %46 = fsub double %40, %45
  %47 = fdiv double %46, %43
  %48 = call i32 (i8*, ...) @printf(i8* nonnull dereferenceable(1) getelementptr inbounds ([17 x i8], [17 x i8]* @.str.2, i64 0, i64 0), double %44, double %47) #7
  br label %61

49:                                               ; preds = %26
  %50 = fcmp oeq double %37, 0.000000e+00
  %51 = fsub double 0.000000e+00, %31
  %52 = fmul double %29, 2.000000e+00
  %53 = fdiv double %51, %52
  br i1 %50, label %54, label %56

54:                                               ; preds = %49
  %55 = call i32 (i8*, ...) @printf(i8* nonnull dereferenceable(1) getelementptr inbounds ([12 x i8], [12 x i8]* @.str.3, i64 0, i64 0), double %53) #7
  br label %61

56:                                               ; preds = %49
  %57 = fsub double 0.000000e+00, %37
  %58 = call double @sqrt(double %57) #7
  %59 = fdiv double %58, %52
  %60 = call i32 (i8*, ...) @printf(i8* nonnull dereferenceable(1) getelementptr inbounds ([29 x i8], [29 x i8]* @.str.4, i64 0, i64 0), double %53, double %59, double %53, double %59) #7
  br label %61

61:                                               ; preds = %39, %54, %56
  %62 = add nuw nsw i64 %27, 1
  %63 = load i32, i32* %1, align 4, !tbaa !5
  %64 = sext i32 %63 to i64
  %65 = icmp slt i64 %62, %64
  br i1 %65, label %26, label %66, !llvm.loop !13

66:                                               ; preds = %61, %0, %14
  call void @free(i8* %7) #7
  call void @free(i8* %9) #7
  call void @free(i8* %11) #7
  call void @llvm.lifetime.end.p0i8(i64 4, i8* nonnull %2) #7
  ret i32 0
}

; Function Attrs: argmemonly mustprogress nofree nosync nounwind willreturn
declare void @llvm.lifetime.start.p0i8(i64 immarg, i8* nocapture) #1

; Function Attrs: nofree nounwind
declare noundef i32 @__isoc99_scanf(i8* nocapture noundef readonly, ...) local_unnamed_addr #2

; Function Attrs: inaccessiblememonly mustprogress nofree nounwind willreturn
declare noalias noundef align 16 i8* @malloc(i64 noundef) local_unnamed_addr #3

; Function Attrs: nofree nounwind sspstrong uwtable
define dso_local void @gen(double %0, double %1, double %2) local_unnamed_addr #4 {
  %4 = fmul double %1, %1
  %5 = fmul double %0, 4.000000e+00
  %6 = fmul double %5, %2
  %7 = fsub double %4, %6
  %8 = fcmp ogt double %7, 0.000000e+00
  br i1 %8, label %9, label %19

9:                                                ; preds = %3
  %10 = fsub double 0.000000e+00, %1
  %11 = tail call double @sqrt(double %7) #7
  %12 = fadd double %10, %11
  %13 = fmul double %0, 2.000000e+00
  %14 = fdiv double %12, %13
  %15 = tail call double @sqrt(double %7) #7
  %16 = fsub double %10, %15
  %17 = fdiv double %16, %13
  %18 = tail call i32 (i8*, ...) @printf(i8* nonnull dereferenceable(1) getelementptr inbounds ([17 x i8], [17 x i8]* @.str.2, i64 0, i64 0), double %14, double %17)
  br label %31

19:                                               ; preds = %3
  %20 = fcmp oeq double %7, 0.000000e+00
  %21 = fsub double 0.000000e+00, %1
  %22 = fmul double %0, 2.000000e+00
  %23 = fdiv double %21, %22
  br i1 %20, label %24, label %26

24:                                               ; preds = %19
  %25 = tail call i32 (i8*, ...) @printf(i8* nonnull dereferenceable(1) getelementptr inbounds ([12 x i8], [12 x i8]* @.str.3, i64 0, i64 0), double %23)
  br label %31

26:                                               ; preds = %19
  %27 = fsub double 0.000000e+00, %7
  %28 = tail call double @sqrt(double %27) #7
  %29 = fdiv double %28, %22
  %30 = tail call i32 (i8*, ...) @printf(i8* nonnull dereferenceable(1) getelementptr inbounds ([29 x i8], [29 x i8]* @.str.4, i64 0, i64 0), double %23, double %29, double %23, double %29)
  br label %31

31:                                               ; preds = %24, %26, %9
  ret void
}

; Function Attrs: inaccessiblemem_or_argmemonly mustprogress nounwind willreturn
declare void @free(i8* nocapture noundef) local_unnamed_addr #5

; Function Attrs: argmemonly mustprogress nofree nosync nounwind willreturn
declare void @llvm.lifetime.end.p0i8(i64 immarg, i8* nocapture) #1

; Function Attrs: mustprogress nofree nounwind willreturn
declare double @sqrt(double) local_unnamed_addr #6

; Function Attrs: nofree nounwind
declare noundef i32 @printf(i8* nocapture noundef readonly, ...) local_unnamed_addr #2


!llvm.module.flags = !{!0, !1, !2, !3}
!llvm.ident = !{!4}

!0 = !{i32 1, !"wchar_size", i32 4}
!1 = !{i32 7, !"PIC Level", i32 2}
!2 = !{i32 7, !"PIE Level", i32 2}
!3 = !{i32 7, !"uwtable", i32 1}
!4 = !{!"clang version 13.0.0"}
!5 = !{!6, !6, i64 0}
!6 = !{!"int", !7, i64 0}
!7 = !{!"omnipotent char", !8, i64 0}
!8 = !{!"Simple C/C++ TBAA"}
!9 = distinct !{!9, !10}
!10 = !{!"llvm.loop.mustprogress"}
!11 = !{!12, !12, i64 0}
!12 = !{!"double", !7, i64 0}
!13 = distinct !{!13, !10}
